; Function Attrs: nounwind uwtable
define internal fastcc void @Cec_ManCombSpecReduce_rec(ptr noundef %0, ptr noundef %1, ptr noundef %2) unnamed_addr #0 {
  %4 = getelementptr inbounds nuw i8, ptr %2, i64 8
  %5 = load i32, ptr %4, align 4, !tbaa !31
  %.not = icmp eq i32 %5, -1
  br i1 %.not, label %6, label %common.ret

6:                                                ; preds = %3
  %7 = getelementptr i8, ptr %1, i64 32
  %.val = load ptr, ptr %7, align 8, !tbaa !30
  %8 = ptrtoint ptr %2 to i64
  %9 = ptrtoint ptr %.val to i64
  %10 = sub i64 %8, %9
  %11 = sdiv exact i64 %10, 12
  %12 = getelementptr inbounds nuw i8, ptr %1, i64 192
  %13 = load ptr, ptr %12, align 8, !tbaa !41
  %sext = shl i64 %11, 32
  %14 = ashr exact i64 %sext, 30
  %15 = getelementptr inbounds i8, ptr %13, i64 %14
  %16 = load i32, ptr %15, align 4
  %17 = and i32 %16, 268435455
  %18 = icmp eq i32 %17, 268435455
  %.not15 = icmp eq ptr %.val, null
  %or.cond = or i1 %.not15, %18
  br i1 %or.cond, label %Gia_ObjReprObj.exit.thread, label %19

common.ret.sink.split:                            ; preds = %19, %Gia_ObjReprObj.exit.thread
  %.sink = phi i32 [ %55, %Gia_ObjReprObj.exit.thread ], [ %27, %19 ]
  store i32 %.sink, ptr %4, align 4, !tbaa !31
  br label %common.ret

common.ret:                                       ; preds = %common.ret.sink.split, %3
  ret void

19:                                               ; preds = %6
  %20 = zext nneg i32 %17 to i64
  %21 = getelementptr inbounds nuw %struct.Gia_Obj_t_, ptr %.val, i64 %20
  tail call fastcc void @Cec_ManCombSpecReduce_rec(ptr noundef %0, ptr noundef nonnull %1, ptr noundef nonnull %21)
  %22 = getelementptr inbounds nuw i8, ptr %21, i64 8
  %23 = load i32, ptr %22, align 4, !tbaa !31
  %.val17 = load i64, ptr %21, align 4
  %.val16 = load i64, ptr %2, align 4
  %24 = xor i64 %.val16, %.val17
  %25 = lshr i64 %24, 63
  %26 = trunc nuw nsw i64 %25 to i32
  %27 = xor i32 %23, %26
  br label %common.ret.sink.split

Gia_ObjReprObj.exit.thread:                       ; preds = %6
  %28 = load i64, ptr %2, align 4
  %29 = and i64 %28, 536870911
  %30 = sub nsw i64 0, %29
  %31 = getelementptr inbounds %struct.Gia_Obj_t_, ptr %2, i64 %30
  tail call fastcc void @Cec_ManCombSpecReduce_rec(ptr noundef %0, ptr noundef nonnull %1, ptr noundef nonnull %31)
  %32 = load i64, ptr %2, align 4
  %33 = lshr i64 %32, 32
  %34 = and i64 %33, 536870911
  %35 = sub nsw i64 0, %34
  %36 = getelementptr inbounds %struct.Gia_Obj_t_, ptr %2, i64 %35
  tail call fastcc void @Cec_ManCombSpecReduce_rec(ptr noundef %0, ptr noundef nonnull %1, ptr noundef nonnull %36)
  %37 = load i64, ptr %2, align 4
  %38 = and i64 %37, 536870911
  %39 = sub nsw i64 0, %38
  %40 = getelementptr inbounds %struct.Gia_Obj_t_, ptr %2, i64 %39, i32 1
  %41 = load i32, ptr %40, align 4, !tbaa !31
  %42 = trunc i64 %37 to i32
  %43 = lshr i32 %42, 29
  %44 = and i32 %43, 1
  %45 = xor i32 %44, %41
  %46 = lshr i64 %37, 32
  %47 = and i64 %46, 536870911
  %48 = sub nsw i64 0, %47
  %49 = getelementptr inbounds %struct.Gia_Obj_t_, ptr %2, i64 %48, i32 1
  %50 = load i32, ptr %49, align 4, !tbaa !31
  %51 = lshr i64 %37, 61
  %52 = trunc nuw nsw i64 %51 to i32
  %53 = and i32 %52, 1
  %54 = xor i32 %53, %50
  %55 = tail call i32 @Gia_ManHashAnd(ptr noundef %0, i32 noundef %45, i32 noundef %54) #16
  br label %common.ret.sink.split
}